; ModuleID = '40/2921.c'
source_filename = "40/2921.c"
target datalayout = "e-m:e-p270:32:32-p271:32:32-p272:64:64-i64:64-f80:128-n8:16:32:64-S128"
target triple = "x86_64-pc-linux-gnu"

@.str = private unnamed_addr constant [16 x i8] c"%lf%lf%lf%lf%lf\00", align 1
@.str.1 = private unnamed_addr constant [15 x i8] c"Invalid input\0A\00", align 1
@.str.2 = private unnamed_addr constant [7 x i8] c"%.4lf\0A\00", align 1

; Function Attrs: noinline nounwind uwtable
define dso_local void @main() #0 {
  %1 = alloca double, align 8
  %2 = alloca double, align 8
  %3 = alloca double, align 8
  %4 = alloca double, align 8
  %5 = alloca double, align 8
  %6 = alloca double, align 8
  %7 = call i32 (i8*, ...) @__isoc99_scanf(i8* getelementptr inbounds ([16 x i8], [16 x i8]* @.str, i64 0, i64 0), double* %1, double* %2, double* %3, double* %4, double* %5)
  %8 = load double, double* %1, align 8
  %9 = load double, double* %2, align 8
  %10 = load double, double* %3, align 8
  %11 = load double, double* %4, align 8
  %12 = load double, double* %5, align 8
  %13 = call double @sqare(double %8, double %9, double %10, double %11, double %12)
  store double %13, double* %6, align 8
  %14 = load double, double* %1, align 8
  %15 = load double, double* %2, align 8
  %16 = load double, double* %3, align 8
  %17 = load double, double* %4, align 8
  %18 = load double, double* %5, align 8
  %19 = call double @sqare(double %14, double %15, double %16, double %17, double %18)
  %20 = fcmp oeq double %19, -1.000000e+00
  br i1 %20, label %21, label %23

21:                                               ; preds = %0
  %22 = call i32 (i8*, ...) @printf(i8* getelementptr inbounds ([15 x i8], [15 x i8]* @.str.1, i64 0, i64 0))
  br label %26

23:                                               ; preds = %0
  %24 = load double, double* %6, align 8
  %25 = call i32 (i8*, ...) @printf(i8* getelementptr inbounds ([7 x i8], [7 x i8]* @.str.2, i64 0, i64 0), double %24)
  br label %26

26:                                               ; preds = %23, %21
  ret void
}

declare dso_local i32 @__isoc99_scanf(i8*, ...) #1

; Function Attrs: noinline nounwind uwtable
define dso_local double @sqare(double %0, double %1, double %2, double %3, double %4) #0 {
  %6 = alloca double, align 8
  %7 = alloca double, align 8
  %8 = alloca double, align 8
  %9 = alloca double, align 8
  %10 = alloca double, align 8
  %11 = alloca double, align 8
  %12 = alloca double, align 8
  %13 = alloca double, align 8
  %14 = alloca double, align 8
  store double %0, double* %7, align 8
  store double %1, double* %8, align 8
  store double %2, double* %9, align 8
  store double %3, double* %10, align 8
  store double %4, double* %11, align 8
  %15 = load double, double* %11, align 8
  %16 = fmul double 1.000000e+02, %15
  %17 = fdiv double %16, 3.600000e+02
  store double %17, double* %14, align 8
  %18 = load double, double* %7, align 8
  %19 = load double, double* %8, align 8
  %20 = fadd double %18, %19
  %21 = load double, double* %9, align 8
  %22 = fadd double %20, %21
  %23 = load double, double* %10, align 8
  %24 = fadd double %22, %23
  %25 = fdiv double %24, 2.000000e+00
  store double %25, double* %13, align 8
  %26 = load double, double* %13, align 8
  %27 = load double, double* %7, align 8
  %28 = fsub double %26, %27
  %29 = load double, double* %13, align 8
  %30 = load double, double* %8, align 8
  %31 = fsub double %29, %30
  %32 = fmul double %28, %31
  %33 = load double, double* %13, align 8
  %34 = load double, double* %9, align 8
  %35 = fsub double %33, %34
  %36 = fmul double %32, %35
  %37 = load double, double* %13, align 8
  %38 = load double, double* %10, align 8
  %39 = fsub double %37, %38
  %40 = fmul double %36, %39
  %41 = load double, double* %7, align 8
  %42 = load double, double* %8, align 8
  %43 = fmul double %41, %42
  %44 = load double, double* %9, align 8
  %45 = fmul double %43, %44
  %46 = load double, double* %10, align 8
  %47 = fmul double %45, %46
  %48 = load double, double* %14, align 8
  %49 = call double @cos(double %48) #3
  %50 = call double @pow(double %49, double 2.000000e+00) #3
  %51 = fmul double %47, %50
  %52 = fsub double %40, %51
  %53 = fcmp olt double %52, 0.000000e+00
  br i1 %53, label %54, label %55

54:                                               ; preds = %5
  store double -1.000000e+00, double* %6, align 8
  br label %85

55:                                               ; preds = %5
  %56 = load double, double* %13, align 8
  %57 = load double, double* %7, align 8
  %58 = fsub double %56, %57
  %59 = load double, double* %13, align 8
  %60 = load double, double* %8, align 8
  %61 = fsub double %59, %60
  %62 = fmul double %58, %61
  %63 = load double, double* %13, align 8
  %64 = load double, double* %9, align 8
  %65 = fsub double %63, %64
  %66 = fmul double %62, %65
  %67 = load double, double* %13, align 8
  %68 = load double, double* %10, align 8
  %69 = fsub double %67, %68
  %70 = fmul double %66, %69
  %71 = load double, double* %7, align 8
  %72 = load double, double* %8, align 8
  %73 = fmul double %71, %72
  %74 = load double, double* %9, align 8
  %75 = fmul double %73, %74
  %76 = load double, double* %10, align 8
  %77 = fmul double %75, %76
  %78 = load double, double* %14, align 8
  %79 = call double @cos(double %78) #3
  %80 = call double @pow(double %79, double 2.000000e+00) #3
  %81 = fmul double %77, %80
  %82 = fsub double %70, %81
  %83 = call double @sqrt(double %82) #3
  store double %83, double* %12, align 8
  %84 = load double, double* %12, align 8
  store double %84, double* %6, align 8
  br label %85

85:                                               ; preds = %55, %54
  %86 = load double, double* %6, align 8
  ret double %86
}

declare dso_local i32 @printf(i8*, ...) #1

; Function Attrs: nounwind
declare dso_local double @pow(double, double) #2

; Function Attrs: nounwind
declare dso_local double @cos(double) #2

; Function Attrs: nounwind
declare dso_local double @sqrt(double) #2


!llvm.module.flags = !{!0}
!llvm.ident = !{!1}

!0 = !{i32 1, !"wchar_size", i32 4}
!1 = !{!"clang version 10.0.0-4ubuntu1 "}
